target datalayout = "e-m:e-p270:32:32-p271:32:32-p272:64:64-i64:64-i128:128-f80:128-n8:16:32:64-S128"
target triple = "x86_64-pc-linux-gnu"

%struct.SDL_HIDAPI_Device = type { ptr, ptr, ptr, ptr, i16, i16, i16, ptr, %struct.SDL_GUID, i32, i32, i32, i32, i16, i16, i8, i32, i32, i32, ptr, ptr, ptr, ptr, %struct.SDL_AtomicInt, i32, ptr, i8, i8, i8, ptr, i32, ptr, ptr }
%struct.SDL_GUID = type { [16 x i8] }
%struct.SDL_AtomicInt = type { i32 }
%struct.GIP_Device = type { ptr, i64, i8, i8, i32, [8 x ptr] }
%struct.GIP_Attachment = type { ptr, i8, i32, i32, i8, i16, ptr, i32, i64, i32, i16, i16, i32, i64, i32, %struct.GIP_Metadata, i8, i8, i8, i8, i8, i32, i32, i64, i8, i8, i8, i8, i8, [64 x i8], i8, i8, i32, i32, i32, i32, i32, i32, i32, i8, i8, i32, i8, i32, i32 }
%struct.GIP_Metadata = type { i16, i16, %struct.GIP_DeviceMetadata, i8, ptr }
%struct.GIP_DeviceMetadata = type { i8, i8, i8, i8, [8 x i32], [8 x i32], ptr, ptr, ptr, ptr, i32 }
%struct.SDL_Joystick = type { i32, ptr, ptr, ptr, %struct.SDL_GUID, i16, i64, i8, i8, i32, ptr, i32, ptr, i32, ptr, i32, ptr, i32, ptr, i32, i32, ptr, i16, i16, i64, i64, i16, i16, i64, i64, i8, i8, i8, i64, i8, i32, i32, i32, i8, i32, ptr, i32, ptr, [3 x [3 x float]], i64, ptr, ptr, i32, i32, ptr }

@.str.52 = private unnamed_addr constant [17 x i8] c"Invalid joystick\00", align 1
@.str.53 = private unnamed_addr constant [32 x i8] c"That operation is not supported\00", align 1

; Function Attrs: nounwind uwtable
define internal ptr @HIDAPI_DriverGIP_FindAttachment(ptr noundef %0, ptr noundef %1) #0 {
  %3 = alloca ptr, align 8
  %4 = alloca ptr, align 8
  %5 = alloca ptr, align 8
  %6 = alloca ptr, align 8
  %7 = alloca i32, align 4
  %8 = alloca i32, align 4
  store ptr %0, ptr %4, align 8
  store ptr %1, ptr %5, align 8
  call void @llvm.lifetime.start.p0(i64 8, ptr %6) #6
  %9 = load ptr, ptr %4, align 8
  %10 = getelementptr inbounds nuw %struct.SDL_HIDAPI_Device, ptr %9, i32 0, i32 20
  %11 = load ptr, ptr %10, align 8
  store ptr %11, ptr %6, align 8
  call void @llvm.lifetime.start.p0(i64 4, ptr %7) #6
  store i32 0, ptr %7, align 4
  br label %12

12:                                               ; preds = %44, %2
  %13 = load i32, ptr %7, align 4
  %14 = icmp slt i32 %13, 8
  br i1 %14, label %15, label %47

15:                                               ; preds = %12
  %16 = load ptr, ptr %6, align 8
  %17 = getelementptr inbounds nuw %struct.GIP_Device, ptr %16, i32 0, i32 5
  %18 = load i32, ptr %7, align 4
  %19 = sext i32 %18 to i64
  %20 = getelementptr inbounds [8 x ptr], ptr %17, i64 0, i64 %19
  %21 = load ptr, ptr %20, align 8
  %22 = icmp ne ptr %21, null
  br i1 %22, label %23, label %43

23:                                               ; preds = %15
  %24 = load ptr, ptr %6, align 8
  %25 = getelementptr inbounds nuw %struct.GIP_Device, ptr %24, i32 0, i32 5
  %26 = load i32, ptr %7, align 4
  %27 = sext i32 %26 to i64
  %28 = getelementptr inbounds [8 x ptr], ptr %25, i64 0, i64 %27
  %29 = load ptr, ptr %28, align 8
  %30 = getelementptr inbounds nuw %struct.GIP_Attachment, ptr %29, i32 0, i32 2
  %31 = load i32, ptr %30, align 4
  %32 = load ptr, ptr %5, align 8
  %33 = getelementptr inbounds nuw %struct.SDL_Joystick, ptr %32, i32 0, i32 0
  %34 = load i32, ptr %33, align 8
  %35 = icmp eq i32 %31, %34
  br i1 %35, label %36, label %43

36:                                               ; preds = %23
  %37 = load ptr, ptr %6, align 8
  %38 = getelementptr inbounds nuw %struct.GIP_Device, ptr %37, i32 0, i32 5
  %39 = load i32, ptr %7, align 4
  %40 = sext i32 %39 to i64
  %41 = getelementptr inbounds [8 x ptr], ptr %38, i64 0, i64 %40
  %42 = load ptr, ptr %41, align 8
  store ptr %42, ptr %3, align 8
  store i32 1, ptr %8, align 4
  br label %48

43:                                               ; preds = %23, %15
  br label %44

44:                                               ; preds = %43
  %45 = load i32, ptr %7, align 4
  %46 = add nsw i32 %45, 1
  store i32 %46, ptr %7, align 4
  br label %12, !llvm.loop !27

47:                                               ; preds = %12
  store ptr null, ptr %3, align 8
  store i32 1, ptr %8, align 4
  br label %48

48:                                               ; preds = %47, %36
  call void @llvm.lifetime.end.p0(i64 4, ptr %7) #6
  call void @llvm.lifetime.end.p0(i64 8, ptr %6) #6
  %49 = load ptr, ptr %3, align 8
  ret ptr %49
}

; Function Attrs: nounwind uwtable
define internal zeroext i1 @HIDAPI_DriverGIP_RumbleJoystickTriggers(ptr noundef %0, ptr noundef %1, i16 noundef zeroext %2, i16 noundef zeroext %3) #0 {
  %5 = alloca i1, align 1
  %6 = alloca ptr, align 8
  %7 = alloca ptr, align 8
  %8 = alloca i16, align 2
  %9 = alloca i16, align 2
  %10 = alloca ptr, align 8
  %11 = alloca i32, align 4
  store ptr %0, ptr %6, align 8
  store ptr %1, ptr %7, align 8
  store i16 %2, ptr %8, align 2
  store i16 %3, ptr %9, align 2
  call void @llvm.lifetime.start.p0(i64 8, ptr %10) #6
  %12 = load ptr, ptr %6, align 8
  %13 = load ptr, ptr %7, align 8
  %14 = call ptr @HIDAPI_DriverGIP_FindAttachment(ptr noundef %12, ptr noundef %13)
  store ptr %14, ptr %10, align 8
  %15 = load ptr, ptr %10, align 8
  %16 = icmp ne ptr %15, null
  br i1 %16, label %19, label %17

17:                                               ; preds = %4
  %18 = call zeroext i1 (ptr, ...) @SDL_SetError_REAL(ptr noundef @.str.52)
  store i1 %18, ptr %5, align 1
  store i32 1, ptr %11, align 4
  br label %50

19:                                               ; preds = %4
  %20 = load ptr, ptr %10, align 8
  %21 = getelementptr inbounds nuw %struct.GIP_Attachment, ptr %20, i32 0, i32 37
  %22 = load i32, ptr %21, align 4
  %23 = and i32 %22, 32
  %24 = icmp ne i32 %23, 0
  br i1 %24, label %25, label %31

25:                                               ; preds = %19
  %26 = load ptr, ptr %10, align 8
  %27 = getelementptr inbounds nuw %struct.GIP_Attachment, ptr %26, i32 0, i32 38
  %28 = load i32, ptr %27, align 8
  %29 = and i32 %28, 4
  %30 = icmp ne i32 %29, 0
  br i1 %30, label %31, label %33

31:                                               ; preds = %25, %19
  %32 = call zeroext i1 (ptr, ...) @SDL_SetError_REAL(ptr noundef @.str.53)
  store i1 %32, ptr %5, align 1
  store i32 1, ptr %11, align 4
  br label %50

33:                                               ; preds = %25
  %34 = load i16, ptr %8, align 2
  %35 = zext i16 %34 to i32
  %36 = sdiv i32 %35, 655
  %37 = trunc i32 %36 to i8
  %38 = load ptr, ptr %10, align 8
  %39 = getelementptr inbounds nuw %struct.GIP_Attachment, ptr %38, i32 0, i32 25
  store i8 %37, ptr %39, align 1
  %40 = load i16, ptr %9, align 2
  %41 = zext i16 %40 to i32
  %42 = sdiv i32 %41, 655
  %43 = trunc i32 %42 to i8
  %44 = load ptr, ptr %10, align 8
  %45 = getelementptr inbounds nuw %struct.GIP_Attachment, ptr %44, i32 0, i32 26
  store i8 %43, ptr %45, align 2
  %46 = load ptr, ptr %10, align 8
  %47 = getelementptr inbounds nuw %struct.GIP_Attachment, ptr %46, i32 0, i32 24
  store i8 1, ptr %47, align 8
  %48 = load ptr, ptr %10, align 8
  %49 = call zeroext i1 @HIDAPI_DriverGIP_UpdateRumble(ptr noundef %48)
  store i1 %49, ptr %5, align 1
  store i32 1, ptr %11, align 4
  br label %50

50:                                               ; preds = %33, %31, %17
  call void @llvm.lifetime.end.p0(i64 8, ptr %10) #6
  %51 = load i1, ptr %5, align 1
  ret i1 %51
}