; Function Attrs: nounwind uwtable
define internal zeroext i1 @HIDAPI_DriverGIP_RumbleJoystickTriggers(ptr noundef readonly captures(none) %0, ptr noundef readonly captures(none) %1, i16 noundef zeroext %2, i16 noundef zeroext %3) #0 {
  %5 = getelementptr i8, ptr %0, i64 112
  %.val = load ptr, ptr %5, align 8
  %6 = getelementptr inbounds nuw i8, ptr %.val, i64 24
  br label %7

7:                                                ; preds = %15, %4
  %indvars.iv.i = phi i64 [ 0, %4 ], [ %indvars.iv.next.i, %15 ]
  %8 = getelementptr inbounds nuw [8 x ptr], ptr %6, i64 0, i64 %indvars.iv.i
  %9 = load ptr, ptr %8, align 8
  %.not.i = icmp eq ptr %9, null
  br i1 %.not.i, label %15, label %10

10:                                               ; preds = %7
  %11 = getelementptr inbounds nuw i8, ptr %9, i64 12
  %12 = load i32, ptr %11, align 4
  %13 = load i32, ptr %1, align 8
  %14 = icmp eq i32 %12, %13
  br i1 %14, label %HIDAPI_DriverGIP_FindAttachment.exit, label %15

15:                                               ; preds = %10, %7
  %indvars.iv.next.i = add nuw nsw i64 %indvars.iv.i, 1
  %exitcond.not.i = icmp eq i64 %indvars.iv.next.i, 8
  br i1 %exitcond.not.i, label %16, label %7, !llvm.loop !12

16:                                               ; preds = %15
  %17 = tail call zeroext i1 (ptr, ...) @SDL_SetError_REAL(ptr noundef nonnull @.str.52) #10
  br label %36

HIDAPI_DriverGIP_FindAttachment.exit:             ; preds = %10
  %18 = getelementptr inbounds nuw i8, ptr %9, i64 332
  %19 = load i32, ptr %18, align 4
  %20 = and i32 %19, 32
  %.not12 = icmp eq i32 %20, 0
  br i1 %.not12, label %25, label %21

21:                                               ; preds = %HIDAPI_DriverGIP_FindAttachment.exit
  %22 = getelementptr inbounds nuw i8, ptr %9, i64 336
  %23 = load i32, ptr %22, align 8
  %24 = and i32 %23, 4
  %.not13 = icmp eq i32 %24, 0
  br i1 %.not13, label %27, label %25

25:                                               ; preds = %21, %HIDAPI_DriverGIP_FindAttachment.exit
  %26 = tail call zeroext i1 (ptr, ...) @SDL_SetError_REAL(ptr noundef nonnull @.str.53) #10
  br label %36

27:                                               ; preds = %21
  %28 = udiv i16 %2, 655
  %29 = trunc nuw nsw i16 %28 to i8
  %30 = getelementptr inbounds nuw i8, ptr %9, i64 241
  store i8 %29, ptr %30, align 1
  %31 = udiv i16 %3, 655
  %32 = trunc nuw nsw i16 %31 to i8
  %33 = getelementptr inbounds nuw i8, ptr %9, i64 242
  store i8 %32, ptr %33, align 2
  %34 = getelementptr inbounds nuw i8, ptr %9, i64 240
  store i8 1, ptr %34, align 8
  %35 = tail call fastcc zeroext i1 @HIDAPI_DriverGIP_UpdateRumble(ptr noundef %9)
  br label %36

36:                                               ; preds = %27, %25, %16
  %.0 = phi i1 [ %26, %25 ], [ %35, %27 ], [ %17, %16 ]
  ret i1 %.0
}